Certificate:
    Data:
        Version: 3 (0x2)
        Serial Number: 4 (0x4)
    Signature Algorithm: sha256WithRSAEncryption
        Issuer: C=ES, ST=Murcia, O=UMU, OU=joseantonio_6915, CN=ca.sstt6915.org/emailAddress=joseantonio.lorencioa@um.es
        Validity
            Not Before: May 12 21:45:08 2020 GMT
            Not After : Jun 16 21:45:08 2021 GMT
        Subject: C=ES, ST=Murcia, O=UMU, OU=joseantonio_6915, CN=www.sstt6915.org/emailAddress=joseantonio.lorencioa@um.es
        Subject Public Key Info:
            Public Key Algorithm: rsaEncryption
                Public-Key: (2048 bit)
                Modulus:
                    00:be:17:67:a5:cc:85:6f:c6:ea:e0:38:43:02:08:
                    28:0e:9c:62:c3:04:fd:99:a8:db:84:7e:fa:e2:a1:
                    80:21:da:ba:2f:6f:34:31:9a:1b:b8:b9:5d:fd:0b:
                    21:55:3e:36:26:92:ac:d3:a7:7f:32:14:ca:df:9e:
                    71:6e:99:8f:ef:86:34:99:6f:79:5b:ba:81:67:01:
                    21:5b:c6:49:86:88:fb:54:da:ca:be:89:cc:09:61:
                    9e:5b:d0:41:20:25:b7:97:93:52:da:a9:76:33:83:
                    db:e3:41:6f:f9:f8:77:e5:f2:7a:7d:cc:45:37:fc:
                    51:3d:b6:28:03:58:f1:aa:7b:92:80:4e:8a:86:bc:
                    2a:10:06:b6:87:c2:fd:cb:93:c3:6c:f6:d4:45:e6:
                    77:2e:92:4a:d0:3b:36:3e:77:2b:54:a7:d6:ea:86:
                    5b:0d:f5:ff:9c:e9:84:49:f1:b4:18:09:19:c7:7a:
                    fc:23:60:8b:0f:2e:3a:0b:94:a1:9b:8e:63:ef:20:
                    ba:09:3c:09:53:8a:dd:6a:1b:b9:7e:83:f9:18:3d:
                    f8:5c:b8:58:80:7a:4d:71:fa:94:eb:f0:aa:17:bd:
                    ba:5c:c8:5b:f4:01:3d:2e:3b:9e:cf:b7:b9:9d:ba:
                    35:cf:bc:37:02:ff:e3:44:80:1f:1c:d8:87:f0:cc:
                    2f:d1
                Exponent: 65537 (0x10001)
        X509v3 extensions:
            X509v3 Basic Constraints: 
                CA:FALSE
            Netscape Comment: 
                OpenSSL Generated Certificate
            X509v3 Subject Key Identifier: 
                20:5D:A7:56:A5:25:30:15:59:BC:D3:6F:E4:58:F5:01:70:6F:8C:27
            X509v3 Authority Key Identifier: 
                keyid:8E:75:B5:A5:F3:5F:56:3A:E3:22:AC:9C:00:94:B2:71:C0:F8:8E:11

    Signature Algorithm: sha256WithRSAEncryption
         ba:75:9d:64:63:c3:d7:a4:e0:cc:d0:c1:44:90:3c:f9:ff:d2:
         9c:27:79:a7:d1:16:8a:8c:33:89:aa:56:b0:ae:02:6d:d6:59:
         38:d6:b9:bb:1b:ed:18:2e:e4:7c:ac:b5:57:fa:89:9f:7c:01:
         54:18:76:e1:c4:b6:18:58:55:e1:c5:3f:c0:b5:5b:eb:49:54:
         d8:83:c2:42:ff:d4:fa:f1:05:7f:59:43:c9:32:c8:f2:d5:d4:
         a6:48:1b:43:f4:2b:54:b7:e3:1b:c6:d3:4a:87:80:e7:2a:91:
         c9:1c:dc:51:18:c6:f2:39:13:08:72:27:ef:92:34:c9:d2:f7:
         a5:be:33:83:32:f1:28:cc:d0:00:86:f2:0d:1d:83:de:e6:fd:
         7e:d8:ca:46:4a:0d:4e:f8:c6:bd:9f:50:55:88:62:3d:38:a3:
         ef:c9:a8:7f:61:1b:af:65:c2:ec:e7:8e:ab:60:b8:c2:48:5e:
         b2:e5:36:73:b9:86:5d:23:b5:66:71:87:36:67:71:fd:83:9a:
         7f:ad:b0:1b:be:36:98:69:da:eb:7f:70:16:e7:8e:b0:ad:69:
         7e:d9:21:cb:93:7a:78:bc:33:1a:e0:a1:ca:ad:10:6f:a6:59:
         f3:c2:84:00:5c:9d:5d:dc:0d:79:ba:d9:ca:8b:e0:11:55:81:
         39:4f:68:96
-----BEGIN CERTIFICATE-----
MIIEEzCCAvugAwIBAgIBBDANBgkqhkiG9w0BAQsFADCBjTELMAkGA1UEBhMCRVMx
DzANBgNVBAgMBk11cmNpYTEMMAoGA1UECgwDVU1VMRkwFwYDVQQLDBBqb3NlYW50
b25pb182OTE1MRgwFgYDVQQDDA9jYS5zc3R0NjkxNS5vcmcxKjAoBgkqhkiG9w0B
CQEWG2pvc2VhbnRvbmlvLmxvcmVuY2lvYUB1bS5lczAeFw0yMDA1MTIyMTQ1MDha
Fw0yMTA2MTYyMTQ1MDhaMIGOMQswCQYDVQQGEwJFUzEPMA0GA1UECAwGTXVyY2lh
MQwwCgYDVQQKDANVTVUxGTAXBgNVBAsMEGpvc2VhbnRvbmlvXzY5MTUxGTAXBgNV
BAMMEHd3dy5zc3R0NjkxNS5vcmcxKjAoBgkqhkiG9w0BCQEWG2pvc2VhbnRvbmlv
LmxvcmVuY2lvYUB1bS5lczCCASIwDQYJKoZIhvcNAQEBBQADggEPADCCAQoCggEB
AL4XZ6XMhW/G6uA4QwIIKA6cYsME/Zmo24R++uKhgCHaui9vNDGaG7i5Xf0LIVU+
NiaSrNOnfzIUyt+ecW6Zj++GNJlveVu6gWcBIVvGSYaI+1Tayr6JzAlhnlvQQSAl
t5eTUtqpdjOD2+NBb/n4d+Xyen3MRTf8UT22KANY8ap7koBOioa8KhAGtofC/cuT
w2z21EXmdy6SStA7Nj53K1Sn1uqGWw31/5zphEnxtBgJGcd6/CNgiw8uOguUoZuO
Y+8gugk8CVOK3WobuX6D+Rg9+Fy4WIB6TXH6lOvwqhe9ulzIW/QBPS47ns+3uZ26
Nc+8NwL/40SAHxzYh/DML9ECAwEAAaN7MHkwCQYDVR0TBAIwADAsBglghkgBhvhC
AQ0EHxYdT3BlblNTTCBHZW5lcmF0ZWQgQ2VydGlmaWNhdGUwHQYDVR0OBBYEFCBd
p1alJTAVWbzTb+RY9QFwb4wnMB8GA1UdIwQYMBaAFI51taXzX1Y64yKsnACUsnHA
+I4RMA0GCSqGSIb3DQEBCwUAA4IBAQC6dZ1kY8PXpODM0MFEkDz5/9KcJ3mn0RaK
jDOJqlawrgJt1lk41rm7G+0YLuR8rLVX+omffAFUGHbhxLYYWFXhxT/AtVvrSVTY
g8JC/9T68QV/WUPJMsjy1dSmSBtD9CtUt+MbxtNKh4DnKpHJHNxRGMbyORMIcifv
kjTJ0velvjODMvEozNAAhvINHYPe5v1+2MpGSg1O+Ma9n1BViGI9OKPvyah/YRuv
ZcLs546rYLjCSF6y5TZzuYZdI7VmcYc2Z3H9g5p/rbAbvjaYadrrf3AW546wrWl+
2SHLk3p4vDMa4KHKrRBvplnzwoQAXJ1d3A15utnKi+ARVYE5T2iW
-----END CERTIFICATE-----
