Certificate:
    Data:
        Version: 3 (0x2)
        Serial Number: 5 (0x5)
    Signature Algorithm: sha256WithRSAEncryption
        Issuer: C=ES, ST=Murcia, O=UMU, OU=joseantonio_6915, CN=ca.sstt6915.org/emailAddress=joseantonio.lorencioa@um.es
        Validity
            Not Before: May 12 21:58:07 2020 GMT
            Not After : Jun 16 21:58:07 2021 GMT
        Subject: C=ES, ST=Murcia, O=UMU, OU=joseantonio_6915, CN=joseantonio_6915/emailAddress=joseantonio.lorencioa@um.es
        Subject Public Key Info:
            Public Key Algorithm: rsaEncryption
                Public-Key: (2048 bit)
                Modulus:
                    00:b9:0d:83:c3:ef:fe:16:09:53:58:1d:d3:a1:9e:
                    57:30:95:c1:6f:de:52:89:da:4d:4c:2f:a4:66:ea:
                    c7:b4:49:b6:50:2f:54:4c:0f:f2:c8:8d:83:e1:aa:
                    6a:d6:7c:70:bd:4f:21:90:19:b9:98:70:a1:37:a5:
                    84:4a:c7:20:94:4b:6e:af:45:18:bd:c9:9e:06:25:
                    69:a3:d4:8c:ae:99:31:9c:54:0d:fd:93:3c:19:aa:
                    8d:ab:80:ae:fe:c2:4e:9e:88:19:95:6d:b5:b3:b5:
                    4b:c6:75:eb:5a:0b:86:ae:e7:3c:b3:75:4d:2f:4b:
                    64:be:40:d8:a9:69:da:cd:b0:e1:3f:20:38:57:d3:
                    a5:92:73:ff:4e:c2:11:94:9a:9f:f6:46:d3:b3:51:
                    49:f0:77:5f:b6:19:71:a7:90:b4:cd:a7:ee:31:d5:
                    fe:1c:b7:00:2c:0b:0c:27:fd:e8:55:5c:6e:88:61:
                    af:31:02:c1:3b:2d:87:6d:8a:7a:23:d9:7c:0f:54:
                    cf:24:b0:1b:af:49:fd:36:8c:df:62:8e:83:10:86:
                    ae:6e:e2:2f:29:c7:0f:7a:c7:a4:36:fe:8d:c9:a5:
                    83:19:7e:9d:bc:f2:2d:d1:b3:8b:ee:db:8b:81:d7:
                    5a:ae:cd:3c:3d:35:f6:af:e2:61:a9:2d:7c:d1:32:
                    46:69
                Exponent: 65537 (0x10001)
        X509v3 extensions:
            X509v3 Basic Constraints: 
                CA:FALSE
            Netscape Comment: 
                OpenSSL Generated Certificate
            X509v3 Subject Key Identifier: 
                65:6D:A4:4D:1C:0E:1A:84:ED:53:80:42:1F:CC:34:7A:C0:46:43:76
            X509v3 Authority Key Identifier: 
                keyid:8E:75:B5:A5:F3:5F:56:3A:E3:22:AC:9C:00:94:B2:71:C0:F8:8E:11

    Signature Algorithm: sha256WithRSAEncryption
         b8:f4:d8:0e:c0:56:30:b8:b6:12:7f:6b:a2:eb:fd:1c:10:19:
         e7:7d:8d:10:73:b9:68:0b:32:48:a1:e3:b2:f2:70:0b:8a:20:
         c3:61:85:ee:94:fb:bd:a6:14:7c:1c:c8:42:a9:f4:fe:a6:13:
         27:1e:a9:7e:9b:5c:fe:b1:e4:24:9b:dd:4a:ea:7b:11:c3:90:
         c7:2f:33:ad:6f:46:68:8a:e4:93:ab:ae:19:f8:28:57:62:df:
         ba:d8:ac:34:42:14:f2:26:5a:d9:05:db:81:42:9c:9b:c5:99:
         dc:be:e5:7e:50:66:13:ae:d6:2f:8d:e9:88:06:9d:d4:57:6b:
         ef:3c:fc:ba:00:76:a7:52:a1:cb:34:0d:99:1a:59:5f:2e:07:
         e2:5d:15:cf:e8:b8:5b:f4:d5:24:09:d5:ff:e2:4e:13:2f:1c:
         61:c2:86:23:aa:d5:27:9f:32:ff:28:45:d2:9b:38:e9:61:ed:
         2c:5b:60:47:b2:b9:18:7c:36:f6:29:11:c6:ee:da:18:3a:74:
         eb:e0:17:3f:8a:b2:18:a0:c7:47:84:29:94:7c:2a:14:b7:08:
         43:30:79:09:ce:79:32:d1:e6:a8:7a:a8:74:aa:c6:58:54:38:
         3a:ce:9a:f4:77:28:4e:80:df:c2:b5:41:de:79:84:13:6a:01:
         98:2e:1b:e3
-----BEGIN CERTIFICATE-----
MIIEEzCCAvugAwIBAgIBBTANBgkqhkiG9w0BAQsFADCBjTELMAkGA1UEBhMCRVMx
DzANBgNVBAgMBk11cmNpYTEMMAoGA1UECgwDVU1VMRkwFwYDVQQLDBBqb3NlYW50
b25pb182OTE1MRgwFgYDVQQDDA9jYS5zc3R0NjkxNS5vcmcxKjAoBgkqhkiG9w0B
CQEWG2pvc2VhbnRvbmlvLmxvcmVuY2lvYUB1bS5lczAeFw0yMDA1MTIyMTU4MDda
Fw0yMTA2MTYyMTU4MDdaMIGOMQswCQYDVQQGEwJFUzEPMA0GA1UECAwGTXVyY2lh
MQwwCgYDVQQKDANVTVUxGTAXBgNVBAsMEGpvc2VhbnRvbmlvXzY5MTUxGTAXBgNV
BAMMEGpvc2VhbnRvbmlvXzY5MTUxKjAoBgkqhkiG9w0BCQEWG2pvc2VhbnRvbmlv
LmxvcmVuY2lvYUB1bS5lczCCASIwDQYJKoZIhvcNAQEBBQADggEPADCCAQoCggEB
ALkNg8Pv/hYJU1gd06GeVzCVwW/eUonaTUwvpGbqx7RJtlAvVEwP8siNg+GqatZ8
cL1PIZAZuZhwoTelhErHIJRLbq9FGL3JngYlaaPUjK6ZMZxUDf2TPBmqjauArv7C
Tp6IGZVttbO1S8Z161oLhq7nPLN1TS9LZL5A2Klp2s2w4T8gOFfTpZJz/07CEZSa
n/ZG07NRSfB3X7YZcaeQtM2n7jHV/hy3ACwLDCf96FVcbohhrzECwTsth22KeiPZ
fA9UzySwG69J/TaM32KOgxCGrm7iLynHD3rHpDb+jcmlgxl+nbzyLdGzi+7bi4HX
Wq7NPD019q/iYaktfNEyRmkCAwEAAaN7MHkwCQYDVR0TBAIwADAsBglghkgBhvhC
AQ0EHxYdT3BlblNTTCBHZW5lcmF0ZWQgQ2VydGlmaWNhdGUwHQYDVR0OBBYEFGVt
pE0cDhqE7VOAQh/MNHrARkN2MB8GA1UdIwQYMBaAFI51taXzX1Y64yKsnACUsnHA
+I4RMA0GCSqGSIb3DQEBCwUAA4IBAQC49NgOwFYwuLYSf2ui6/0cEBnnfY0Qc7lo
CzJIoeOy8nALiiDDYYXulPu9phR8HMhCqfT+phMnHql+m1z+seQkm91K6nsRw5DH
LzOtb0ZoiuSTq64Z+ChXYt+62Kw0QhTyJlrZBduBQpybxZncvuV+UGYTrtYvjemI
Bp3UV2vvPPy6AHanUqHLNA2ZGllfLgfiXRXP6Lhb9NUkCdX/4k4TLxxhwoYjqtUn
nzL/KEXSmzjpYe0sW2BHsrkYfDb2KRHG7toYOnTr4Bc/irIYoMdHhCmUfCoUtwhD
MHkJznky0eaoeqh0qsZYVDg6zpr0dyhOgN/CtUHeeYQTagGYLhvj
-----END CERTIFICATE-----
